(dp0
I4
(lp1
(dp2
S'date'
p3
S'Tuesday May 04, 2010'
p4
sS'total'
p5
I4
sS'time'
p6
S'19:12:21'
p7
sS'name'
p8
S'Player 1'
p9
sS'datetime'
p10
S'Tue May  4 19:12:21 2010'
p11
sa(dp12
S'date'
p13
S'Tuesday May 04, 2010'
p14
sS'total'
p15
I4
sS'datetime'
p16
S'Tue May  4 19:15:31 2010'
p17
sS'name'
p18
S'Player 1'
p19
sS'time'
p20
S'19:15:31'
p21
sas.