(dp0
I16
(lp1
(dp2
S'date'
p3
S'Tuesday May 04, 2010'
p4
sS'total'
p5
I16
sS'time'
p6
S'19:11:54'
p7
sS'name'
p8
S'Player 1'
p9
sS'datetime'
p10
S'Tue May  4 19:11:54 2010'
p11
sa(dp12
S'date'
p13
S'Tuesday May 04, 2010'
p14
sS'total'
p15
I16
sS'datetime'
p16
S'Tue May  4 19:12:36 2010'
p17
sS'name'
p18
S'Player 1'
p19
sS'time'
p20
S'19:12:36'
p21
sasI17
(lp22
(dp23
S'date'
p24
S'Tuesday May 04, 2010'
p25
sS'total'
p26
I17
sS'datetime'
p27
S'Tue May  4 19:12:33 2010'
p28
sS'name'
p29
S'Player 1'
p30
sS'time'
p31
S'19:12:33'
p32
sasI19
(lp33
(dp34
S'date'
p35
S'Tuesday May 04, 2010'
p36
sS'total'
p37
I19
sS'datetime'
p38
S'Tue May  4 19:15:07 2010'
p39
sS'name'
p40
S'Player 1'
p41
sS'time'
p42
S'19:15:07'
p43
sasI14
(lp44
(dp45
S'date'
p46
S'Tuesday May 04, 2010'
p47
sS'total'
p48
I14
sS'datetime'
p49
S'Tue May  4 19:11:54 2010'
p50
sS'name'
p51
S'Player 1'
p52
sS'time'
p53
S'19:11:54'
p54
sa(dp55
S'date'
p56
S'Tuesday May 04, 2010'
p57
sS'total'
p58
I14
sS'datetime'
p59
S'Tue May  4 19:11:54 2010'
p60
sS'name'
p61
S'Player 2'
p62
sS'time'
p63
S'19:11:54'
p64
sa(dp65
S'date'
p66
S'Tuesday May 04, 2010'
p67
sS'total'
p68
I14
sS'datetime'
p69
S'Tue May  4 19:12:30 2010'
p70
sS'name'
p71
S'Player 2'
p72
sS'time'
p73
S'19:12:30'
p74
sa(dp75
S'date'
p76
S'Tuesday May 04, 2010'
p77
sS'total'
p78
I14
sS'time'
p79
S'19:12:33'
p80
sS'name'
p81
S'Player 1'
p82
sS'datetime'
p83
S'Tue May  4 19:12:33 2010'
p84
sa(dp85
S'date'
p86
S'Tuesday May 04, 2010'
p87
sS'total'
p88
I14
sS'time'
p89
S'19:12:33'
p90
sS'name'
p91
S'Player 1'
p92
sS'datetime'
p93
S'Tue May  4 19:12:33 2010'
p94
sa(dp95
S'date'
p96
S'Tuesday May 04, 2010'
p97
sS'total'
p98
I14
sS'datetime'
p99
S'Tue May  4 19:12:36 2010'
p100
sS'name'
p101
S'Player 2'
p102
sS'time'
p103
S'19:12:36'
p104
sa(dp105
S'date'
p106
S'Tuesday May 04, 2010'
p107
sS'total'
p108
I14
sS'time'
p109
S'19:14:51'
p110
sS'name'
p111
S'Player 2'
p112
sS'datetime'
p113
S'Tue May  4 19:14:51 2010'
p114
sa(dp115
S'date'
p116
S'Tuesday May 04, 2010'
p117
sS'total'
p118
I14
sS'time'
p119
S'19:14:52'
p120
sS'name'
p121
S'Player 2'
p122
sS'datetime'
p123
S'Tue May  4 19:14:52 2010'
p124
sa(dp125
S'date'
p126
S'Tuesday May 04, 2010'
p127
sS'total'
p128
I14
sS'time'
p129
S'19:14:55'
p130
sS'name'
p131
S'Player 1'
p132
sS'datetime'
p133
S'Tue May  4 19:14:55 2010'
p134
sa(dp135
S'date'
p136
S'Tuesday May 04, 2010'
p137
sS'total'
p138
I14
sS'datetime'
p139
S'Tue May  4 19:15:07 2010'
p140
sS'name'
p141
S'Player 1'
p142
sS'time'
p143
S'19:15:07'
p144
sasI15
(lp145
(dp146
S'date'
p147
S'Tuesday May 04, 2010'
p148
sS'total'
p149
I15
sS'datetime'
p150
S'Tue May  4 19:11:43 2010'
p151
sS'name'
p152
S'Player 1'
p153
sS'time'
p154
S'19:11:43'
p155
sa(dp156
S'date'
p157
S'Tuesday May 04, 2010'
p158
sS'total'
p159
I15
sS'time'
p160
S'19:11:54'
p161
sS'name'
p162
S'Player 1'
p163
sS'datetime'
p164
S'Tue May  4 19:11:54 2010'
p165
sa(dp166
S'date'
p167
S'Tuesday May 04, 2010'
p168
sS'total'
p169
I15
sS'datetime'
p170
S'Tue May  4 19:15:43 2010'
p171
sS'name'
p172
S'Player 2'
p173
sS'time'
p174
S'19:15:43'
p175
sas.