(dp0
I14
(lp1
(dp2
S'date'
p3
S'Tuesday May 04, 2010'
p4
sS'total'
p5
I14
sS'time'
p6
S'19:11:47'
p7
sS'name'
p8
S'Player 1'
p9
sS'datetime'
p10
S'Tue May  4 19:11:47 2010'
p11
sa(dp12
S'date'
p13
S'Tuesday May 04, 2010'
p14
sS'total'
p15
I14
sS'datetime'
p16
S'Tue May  4 19:14:59 2010'
p17
sS'name'
p18
S'Player 1'
p19
sS'time'
p20
S'19:14:59'
p21
sas.