(dp0
I49
(lp1
(dp2
S'date'
p3
S'Tuesday May 04, 2010'
p4
sS'total'
p5
I49
sS'datetime'
p6
S'Tue May  4 19:15:13 2010'
p7
sS'name'
p8
S'Player 1'
p9
sS'time'
p10
S'19:15:13'
p11
sasI54
(lp12
(dp13
S'date'
p14
S'Tuesday May 04, 2010'
p15
sS'total'
p16
I54
sS'time'
p17
S'19:12:01'
p18
sS'name'
p19
S'Player 2'
p20
sS'datetime'
p21
S'Tue May  4 19:12:01 2010'
p22
sas.