(dp0
I145
(lp1
(dp2
S'date'
p3
S'Tuesday May 04, 2010'
p4
sS'total'
p5
I145
sS'datetime'
p6
S'Tue May  4 19:15:32 2010'
p7
sS'name'
p8
S'Player 1'
p9
sS'time'
p10
S'19:15:32'
p11
sasI140
(lp12
(dp13
S'date'
p14
S'Tuesday May 04, 2010'
p15
sS'total'
p16
I140
sS'time'
p17
S'19:12:24'
p18
sS'name'
p19
S'Player 1'
p20
sS'datetime'
p21
S'Tue May  4 19:12:24 2010'
p22
sas.