(dp0
I145
(lp1
(dp2
S'date'
p3
S'Tuesday May 04, 2010'
p4
sS'total'
p5
I145
sS'time'
p6
S'19:12:28'
p7
sS'name'
p8
S'Player 2'
p9
sS'datetime'
p10
S'Tue May  4 19:12:28 2010'
p11
sasI140
(lp12
(dp13
S'date'
p14
S'Tuesday May 04, 2010'
p15
sS'total'
p16
I140
sS'datetime'
p17
S'Tue May  4 19:15:37 2010'
p18
sS'name'
p19
S'Player 2'
p20
sS'time'
p21
S'19:15:37'
p22
sas.