(dp0
I98
(lp1
(dp2
S'date'
p3
S'Tuesday May 04, 2010'
p4
sS'total'
p5
I98
sS'time'
p6
S'11:23:44'
p7
sS'name'
p8
S'Player 1'
p9
sS'datetime'
p10
S'Tue May  4 11:23:44 2010'
p11
sa(dp12
S'date'
p13
S'Tuesday May 04, 2010'
p14
sS'total'
p15
I98
sS'time'
p16
S'16:53:50'
p17
sS'name'
p18
S'Player 2'
p19
sS'datetime'
p20
S'Tue May  4 16:53:50 2010'
p21
sa(dp22
S'date'
p23
S'Tuesday May 04, 2010'
p24
sS'total'
p25
I98
sS'datetime'
p26
S'Tue May  4 16:54:53 2010'
p27
sS'name'
p28
S'Player 1'
p29
sS'time'
p30
S'16:54:53'
p31
sa(dp32
S'date'
p33
S'Tuesday May 04, 2010'
p34
sS'total'
p35
I98
sS'time'
p36
S'16:58:39'
p37
sS'name'
p38
S'Player 1'
p39
sS'datetime'
p40
S'Tue May  4 16:58:39 2010'
p41
sa(dp42
S'date'
p43
S'Tuesday May 04, 2010'
p44
sS'total'
p45
I98
sS'datetime'
p46
S'Tue May  4 17:01:09 2010'
p47
sS'name'
p48
S'Player 1'
p49
sS'time'
p50
S'17:01:09'
p51
sa(dp52
S'date'
p53
S'Tuesday May 04, 2010'
p54
sS'total'
p55
I98
sS'datetime'
p56
S'Tue May  4 17:12:07 2010'
p57
sS'name'
p58
S'Player 1'
p59
sS'time'
p60
S'17:12:07'
p61
sa(dp62
S'date'
p63
S'Tuesday May 04, 2010'
p64
sS'total'
p65
I98
sS'time'
p66
S'18:00:23'
p67
sS'name'
p68
S'Player 1'
p69
sS'datetime'
p70
S'Tue May  4 18:00:23 2010'
p71
sa(dp72
S'date'
p73
S'Tuesday May 04, 2010'
p74
sS'total'
p75
I98
sS'datetime'
p76
S'Tue May  4 18:02:25 2010'
p77
sS'name'
p78
S'Player 2'
p79
sS'time'
p80
S'18:02:25'
p81
sa(dp82
S'date'
p83
S'Tuesday May 04, 2010'
p84
sS'total'
p85
I98
sS'time'
p86
S'18:14:38'
p87
sS'name'
p88
S'Player 2'
p89
sS'datetime'
p90
S'Tue May  4 18:14:38 2010'
p91
sa(dp92
S'date'
p93
S'Tuesday May 04, 2010'
p94
sS'total'
p95
I98
sS'datetime'
p96
S'Tue May  4 18:15:05 2010'
p97
sS'name'
p98
S'Player 2'
p99
sS'time'
p100
S'18:15:05'
p101
sa(dp102
S'date'
p103
S'Tuesday May 04, 2010'
p104
sS'total'
p105
I98
sS'datetime'
p106
S'Tue May  4 18:23:08 2010'
p107
sS'name'
p108
S'Player 2'
p109
sS'time'
p110
S'18:23:08'
p111
sa(dp112
S'date'
p113
S'Tuesday May 04, 2010'
p114
sS'total'
p115
I98
sS'datetime'
p116
S'Tue May  4 18:24:06 2010'
p117
sS'name'
p118
S'Player 1'
p119
sS'time'
p120
S'18:24:06'
p121
sa(dp122
S'date'
p123
S'Tuesday May 04, 2010'
p124
sS'total'
p125
I98
sS'datetime'
p126
S'Tue May  4 18:33:00 2010'
p127
sS'name'
p128
S'Player 2'
p129
sS'time'
p130
S'18:33:00'
p131
sa(dp132
S'date'
p133
S'Tuesday May 04, 2010'
p134
sS'total'
p135
I98
sS'datetime'
p136
S'Tue May  4 18:59:00 2010'
p137
sS'name'
p138
S'Player 1'
p139
sS'time'
p140
S'18:59:00'
p141
sa(dp142
S'date'
p143
S'Tuesday May 04, 2010'
p144
sS'total'
p145
I98
sS'time'
p146
S'19:04:57'
p147
sS'name'
p148
S'Player 1'
p149
sS'datetime'
p150
S'Tue May  4 19:04:57 2010'
p151
sasI99
(lp152
(dp153
S'date'
p154
S'Tuesday May 04, 2010'
p155
sS'total'
p156
I99
sS'datetime'
p157
S'Tue May  4 18:45:41 2010'
p158
sS'name'
p159
S'Player 2'
p160
sS'time'
p161
S'18:45:41'
p162
sas.