(dp0
I104
(lp1
(dp2
S'date'
p3
S'Tuesday May 04, 2010'
p4
sS'total'
p5
I104
sS'time'
p6
S'19:04:57'
p7
sS'name'
p8
S'Player 2'
p9
sS'datetime'
p10
S'Tue May  4 19:04:57 2010'
p11
sasI101
(lp12
(dp13
S'date'
p14
S'Tuesday May 04, 2010'
p15
sS'total'
p16
I101
sS'time'
p17
S'16:53:50'
p18
sS'name'
p19
S'Player 2'
p20
sS'datetime'
p21
S'Tue May  4 16:53:50 2010'
p22
sa(dp23
S'date'
p24
S'Tuesday May 04, 2010'
p25
sS'total'
p26
I101
sS'time'
p27
S'16:58:39'
p28
sS'name'
p29
S'Player 1'
p30
sS'datetime'
p31
S'Tue May  4 16:58:39 2010'
p32
sa(dp33
S'date'
p34
S'Tuesday May 04, 2010'
p35
sS'total'
p36
I101
sS'time'
p37
S'17:14:07'
p38
sS'name'
p39
S'Player 2'
p40
sS'datetime'
p41
S'Tue May  4 17:14:07 2010'
p42
sa(dp43
S'date'
p44
S'Tuesday May 04, 2010'
p45
sS'total'
p46
I101
sS'datetime'
p47
S'Tue May  4 17:37:46 2010'
p48
sS'name'
p49
S'Player 2'
p50
sS'time'
p51
S'17:37:46'
p52
sa(dp53
S'date'
p54
S'Tuesday May 04, 2010'
p55
sS'total'
p56
I101
sS'datetime'
p57
S'Tue May  4 17:39:20 2010'
p58
sS'name'
p59
S'Player 1'
p60
sS'time'
p61
S'17:39:20'
p62
sa(dp63
S'date'
p64
S'Tuesday May 04, 2010'
p65
sS'total'
p66
I101
sS'datetime'
p67
S'Tue May  4 17:41:46 2010'
p68
sS'name'
p69
S'Player 1'
p70
sS'time'
p71
S'17:41:46'
p72
sa(dp73
S'date'
p74
S'Tuesday May 04, 2010'
p75
sS'total'
p76
I101
sS'time'
p77
S'17:53:45'
p78
sS'name'
p79
S'Player 2'
p80
sS'datetime'
p81
S'Tue May  4 17:53:45 2010'
p82
sa(dp83
S'date'
p84
S'Tuesday May 04, 2010'
p85
sS'total'
p86
I101
sS'datetime'
p87
S'Tue May  4 18:01:06 2010'
p88
sS'name'
p89
S'Player 2'
p90
sS'time'
p91
S'18:01:06'
p92
sa(dp93
S'date'
p94
S'Tuesday May 04, 2010'
p95
sS'total'
p96
I101
sS'time'
p97
S'18:09:21'
p98
sS'name'
p99
S'Player 1'
p100
sS'datetime'
p101
S'Tue May  4 18:09:21 2010'
p102
sa(dp103
S'date'
p104
S'Tuesday May 04, 2010'
p105
sS'total'
p106
I101
sS'datetime'
p107
S'Tue May  4 18:15:05 2010'
p108
sS'name'
p109
S'Player 1'
p110
sS'time'
p111
S'18:15:05'
p112
sasI102
(lp113
(dp114
S'date'
p115
S'Tuesday May 04, 2010'
p116
sS'total'
p117
I102
sS'time'
p118
S'17:47:17'
p119
sS'name'
p120
S'Player 1'
p121
sS'datetime'
p122
S'Tue May  4 17:47:17 2010'
p123
sa(dp124
S'date'
p125
S'Tuesday May 04, 2010'
p126
sS'total'
p127
I102
sS'datetime'
p128
S'Tue May  4 17:54:05 2010'
p129
sS'name'
p130
S'Player 1'
p131
sS'time'
p132
S'17:54:05'
p133
sa(dp134
S'date'
p135
S'Tuesday May 04, 2010'
p136
sS'total'
p137
I102
sS'datetime'
p138
S'Tue May  4 18:11:08 2010'
p139
sS'name'
p140
S'Player 2'
p141
sS'time'
p142
S'18:11:08'
p143
sa(dp144
S'date'
p145
S'Tuesday May 04, 2010'
p146
sS'total'
p147
I102
sS'time'
p148
S'18:13:04'
p149
sS'name'
p150
S'Player 2'
p151
sS'datetime'
p152
S'Tue May  4 18:13:04 2010'
p153
sasI103
(lp154
(dp155
S'date'
p156
S'Tuesday May 04, 2010'
p157
sS'total'
p158
I103
sS'time'
p159
S'17:29:54'
p160
sS'name'
p161
S'Player 1'
p162
sS'datetime'
p163
S'Tue May  4 17:29:54 2010'
p164
sa(dp165
S'date'
p166
S'Tuesday May 04, 2010'
p167
sS'total'
p168
I103
sS'time'
p169
S'18:58:39'
p170
sS'name'
p171
S'Player 1'
p172
sS'datetime'
p173
S'Tue May  4 18:58:39 2010'
p174
sa(dp175
S'date'
p176
S'Tuesday May 04, 2010'
p177
sS'total'
p178
I103
sS'time'
p179
S'19:05:07'
p180
sS'name'
p181
S'Player 2'
p182
sS'datetime'
p183
S'Tue May  4 19:05:07 2010'
p184
sas.