(dp0
I115
(lp1
(dp2
S'date'
p3
S'Tuesday May 04, 2010'
p4
sS'total'
p5
I115
sS'datetime'
p6
S'Tue May  4 16:34:56 2010'
p7
sS'name'
p8
S'Player 2'
p9
sS'time'
p10
S'16:34:56'
p11
sa(dp12
S'date'
p13
S'Tuesday May 04, 2010'
p14
sS'total'
p15
I115
sS'datetime'
p16
S'Tue May  4 16:51:21 2010'
p17
sS'name'
p18
S'Player 1'
p19
sS'time'
p20
S'16:51:21'
p21
sa(dp22
S'date'
p23
S'Tuesday May 04, 2010'
p24
sS'total'
p25
I115
sS'time'
p26
S'16:51:37'
p27
sS'name'
p28
S'Player 1'
p29
sS'datetime'
p30
S'Tue May  4 16:51:37 2010'
p31
sa(dp32
S'date'
p33
S'Tuesday May 04, 2010'
p34
sS'total'
p35
I115
sS'time'
p36
S'16:54:53'
p37
sS'name'
p38
S'Player 1'
p39
sS'datetime'
p40
S'Tue May  4 16:54:53 2010'
p41
sa(dp42
S'date'
p43
S'Tuesday May 04, 2010'
p44
sS'total'
p45
I115
sS'datetime'
p46
S'Tue May  4 18:02:26 2010'
p47
sS'name'
p48
S'Player 2'
p49
sS'time'
p50
S'18:02:26'
p51
sa(dp52
S'date'
p53
S'Tuesday May 04, 2010'
p54
sS'total'
p55
I115
sS'time'
p56
S'18:14:39'
p57
sS'name'
p58
S'Player 2'
p59
sS'datetime'
p60
S'Tue May  4 18:14:39 2010'
p61
sa(dp62
S'date'
p63
S'Tuesday May 04, 2010'
p64
sS'total'
p65
I115
sS'datetime'
p66
S'Tue May  4 18:23:37 2010'
p67
sS'name'
p68
S'Player 1'
p69
sS'time'
p70
S'18:23:37'
p71
sa(dp72
S'date'
p73
S'Tuesday May 04, 2010'
p74
sS'total'
p75
I115
sS'datetime'
p76
S'Tue May  4 18:59:00 2010'
p77
sS'name'
p78
S'Player 1'
p79
sS'time'
p80
S'18:59:00'
p81
sa(dp82
S'date'
p83
S'Tuesday May 04, 2010'
p84
sS'total'
p85
I115
sS'datetime'
p86
S'Tue May  4 19:00:44 2010'
p87
sS'name'
p88
S'Player 1'
p89
sS'time'
p90
S'19:00:44'
p91
sasI116
(lp92
(dp93
S'date'
p94
S'Tuesday May 04, 2010'
p95
sS'total'
p96
I116
sS'time'
p97
S'17:12:07'
p98
sS'name'
p99
S'Player 1'
p100
sS'datetime'
p101
S'Tue May  4 17:12:07 2010'
p102
sa(dp103
S'date'
p104
S'Tuesday May 04, 2010'
p105
sS'total'
p106
I116
sS'datetime'
p107
S'Tue May  4 17:37:45 2010'
p108
sS'name'
p109
S'Player 1'
p110
sS'time'
p111
S'17:37:45'
p112
sa(dp113
S'date'
p114
S'Tuesday May 04, 2010'
p115
sS'total'
p116
I116
sS'time'
p117
S'17:41:46'
p118
sS'name'
p119
S'Player 2'
p120
sS'datetime'
p121
S'Tue May  4 17:41:46 2010'
p122
sa(dp123
S'date'
p124
S'Tuesday May 04, 2010'
p125
sS'total'
p126
I116
sS'datetime'
p127
S'Tue May  4 19:04:08 2010'
p128
sS'name'
p129
S'Player 2'
p130
sS'time'
p131
S'19:04:08'
p132
sasI117
(lp133
(dp134
S'date'
p135
S'Tuesday May 04, 2010'
p136
sS'total'
p137
I117
sS'time'
p138
S'17:29:54'
p139
sS'name'
p140
S'Player 1'
p141
sS'datetime'
p142
S'Tue May  4 17:29:54 2010'
p143
sasI118
(lp144
(dp145
S'date'
p146
S'Tuesday May 04, 2010'
p147
sS'total'
p148
I118
sS'time'
p149
S'18:30:29'
p150
sS'name'
p151
S'Player 1'
p152
sS'datetime'
p153
S'Tue May  4 18:30:29 2010'
p154
sa(dp155
S'date'
p156
S'Tuesday May 04, 2010'
p157
sS'total'
p158
I118
sS'datetime'
p159
S'Tue May  4 19:05:12 2010'
p160
sS'name'
p161
S'Player 2'
p162
sS'time'
p163
S'19:05:12'
p164
sasI119
(lp165
(dp166
S'date'
p167
S'Tuesday May 04, 2010'
p168
sS'total'
p169
I119
sS'datetime'
p170
S'Tue May  4 18:45:05 2010'
p171
sS'name'
p172
S'Player 2'
p173
sS'time'
p174
S'18:45:05'
p175
sasI124
(lp176
(dp177
S'date'
p178
S'Tuesday May 04, 2010'
p179
sS'total'
p180
I124
sS'time'
p181
S'17:47:37'
p182
sS'name'
p183
S'Player 1'
p184
sS'datetime'
p185
S'Tue May  4 17:47:37 2010'
p186
sas.